; Function Attrs: mustprogress nofree norecurse nosync nounwind willreturn memory(none) uwtable
define range(i32 0, 32) i32 @u_charDirection_77(i32 noundef %0) local_unnamed_addr #2 {
  %2 = icmp ult i32 %0, 55296
  br i1 %2, label %3, label %5

3:                                                ; preds = %1
  %4 = lshr i32 %0, 5
  br label %.sink.split.i

5:                                                ; preds = %1
  %6 = icmp ult i32 %0, 65536
  br i1 %6, label %7, label %12

7:                                                ; preds = %5
  %8 = icmp samesign ult i32 %0, 56320
  %9 = select i1 %8, i32 320, i32 0
  %10 = lshr i32 %0, 5
  %11 = add nuw nsw i32 %9, %10
  br label %.sink.split.i

12:                                               ; preds = %5
  %13 = icmp ugt i32 %0, 1114111
  br i1 %13, label %ubidi_getClass_77.exit, label %14

14:                                               ; preds = %12
  %15 = lshr i32 %0, 11
  %16 = zext nneg i32 %15 to i64
  %17 = getelementptr inbounds nuw i16, ptr @_ZL21ubidi_props_trieIndex, i64 %16
  %18 = getelementptr inbounds nuw i8, ptr %17, i64 4160
  %19 = load i16, ptr %18, align 2, !tbaa !20
  %20 = zext i16 %19 to i32
  %21 = lshr i32 %0, 5
  %22 = and i32 %21, 63
  %23 = add nuw nsw i32 %22, %20
  br label %.sink.split.i

.sink.split.i:                                    ; preds = %14, %7, %3
  %.sink16.i = phi i32 [ %11, %7 ], [ %23, %14 ], [ %4, %3 ]
  %24 = zext nneg i32 %.sink16.i to i64
  %25 = getelementptr inbounds nuw i16, ptr @_ZL21ubidi_props_trieIndex, i64 %24
  %26 = load i16, ptr %25, align 2, !tbaa !20
  %27 = zext i16 %26 to i32
  %28 = shl nuw nsw i32 %27, 2
  %29 = and i32 %0, 31
  %30 = add nuw nsw i32 %28, %29
  %31 = zext nneg i32 %30 to i64
  br label %ubidi_getClass_77.exit

ubidi_getClass_77.exit:                           ; preds = %12, %.sink.split.i
  %32 = phi i64 [ 3796, %12 ], [ %31, %.sink.split.i ]
  %33 = getelementptr inbounds nuw i16, ptr @_ZL21ubidi_props_trieIndex, i64 %32
  %34 = load i16, ptr %33, align 2, !tbaa !20
  %35 = and i16 %34, 31
  %36 = zext nneg i16 %35 to i32
  ret i32 %36
}